; Function Attrs: mustprogress uwtable
define hidden void @_ZN10ODDLParser13OpenDDLParser5clearEv(ptr noundef nonnull align 8 dereferenceable(88) %0) local_unnamed_addr #6 align 2 {
  %2 = getelementptr inbounds nuw i8, ptr %0, i64 32
  tail call void @_ZNSt6vectorIcSaIcEE6resizeEm(ptr noundef nonnull align 8 dereferenceable(24) %2, i64 noundef 0)
  %3 = getelementptr inbounds nuw i8, ptr %0, i64 80
  %4 = load ptr, ptr %3, align 8
  %5 = icmp eq ptr %4, null
  br i1 %5, label %7, label %6

6:                                                ; preds = %1
  tail call void @_ZN10ODDLParser7ContextD1Ev(ptr noundef nonnull align 8 dereferenceable(8) %4) #29
  tail call void @_ZdlPvm(ptr noundef nonnull %4, i64 noundef 8) #30
  br label %7

7:                                                ; preds = %6, %1
  store ptr null, ptr %3, align 8
  ret void
}